target datalayout = "e-m:e-p270:32:32-p271:32:32-p272:64:64-i64:64-i128:128-f80:128-n8:16:32:64-S128"
target triple = "x86_64-pc-linux-gnu"

%struct.H5G_link_iterate_t = type { i32, %union.anon.0 }
%union.anon.0 = type { ptr }

@.str = private unnamed_addr constant [100 x i8] c"generated/home/dtcxzyw/WorkSpace/Projects/compilers/llvm-opt-benchmark/bench/hdf5/hdf5/src/H5Lint.c\00", align 1
@H5E_LINK_g = external global i64, align 8
@__func__.H5L_iterate = private unnamed_addr constant [12 x i8] c"H5L_iterate\00", align 1
@H5E_BADITER_g = external global i64, align 8
@.str.30 = private unnamed_addr constant [22 x i8] c"link iteration failed\00", align 1

; Function Attrs: nounwind uwtable
define i32 @H5L_iterate(ptr noundef %0, ptr noundef %1, i32 noundef %2, i32 noundef %3, ptr noundef %4, ptr noundef %5, ptr noundef %6) #0 {
  %8 = alloca ptr, align 8
  %9 = alloca ptr, align 8
  %10 = alloca i32, align 4
  %11 = alloca i32, align 4
  %12 = alloca ptr, align 8
  %13 = alloca ptr, align 8
  %14 = alloca ptr, align 8
  %15 = alloca %struct.H5G_link_iterate_t, align 8
  %16 = alloca i64, align 8
  %17 = alloca i64, align 8
  %18 = alloca i32, align 4
  %19 = alloca i8, align 1
  store ptr %0, ptr %8, align 8
  store ptr %1, ptr %9, align 8
  store i32 %2, ptr %10, align 4
  store i32 %3, ptr %11, align 4
  store ptr %4, ptr %12, align 8
  store ptr %5, ptr %13, align 8
  store ptr %6, ptr %14, align 8
  store i32 -1, ptr %18, align 4
  store i8 0, ptr %19, align 1
  %20 = load ptr, ptr %12, align 8
  %21 = icmp eq ptr %20, null
  br i1 %21, label %22, label %23

22:                                               ; preds = %7
  br label %26

23:                                               ; preds = %7
  %24 = load ptr, ptr %12, align 8
  %25 = load i64, ptr %24, align 8
  br label %26

26:                                               ; preds = %23, %22
  %27 = phi i64 [ 0, %22 ], [ %25, %23 ]
  store i64 %27, ptr %17, align 8
  store i64 0, ptr %16, align 8
  %28 = getelementptr inbounds %struct.H5G_link_iterate_t, ptr %15, i32 0, i32 0
  store i32 1, ptr %28, align 8
  %29 = load ptr, ptr %13, align 8
  %30 = getelementptr inbounds %struct.H5G_link_iterate_t, ptr %15, i32 0, i32 1
  store ptr %29, ptr %30, align 8
  %31 = load ptr, ptr %8, align 8
  %32 = load ptr, ptr %9, align 8
  %33 = load i32, ptr %10, align 4
  %34 = load i32, ptr %11, align 4
  %35 = load i64, ptr %17, align 8
  %36 = load ptr, ptr %14, align 8
  %37 = call i32 @H5G_iterate(ptr noundef %31, ptr noundef %32, i32 noundef %33, i32 noundef %34, i64 noundef %35, ptr noundef %16, ptr noundef %15, ptr noundef %36)
  store i32 %37, ptr %18, align 4
  %38 = icmp slt i32 %37, 0
  br i1 %38, label %39, label %54

39:                                               ; preds = %26
  br label %40

40:                                               ; preds = %39
  br label %41

41:                                               ; preds = %40
  br label %42

42:                                               ; preds = %41
  %43 = load i64, ptr @H5E_LINK_g, align 8
  %44 = load i64, ptr @H5E_BADITER_g, align 8
  %45 = call i32 (ptr, ptr, i32, i64, i64, ptr, ...) @H5E_printf_stack(ptr noundef @.str, ptr noundef @__func__.H5L_iterate, i32 noundef 2149, i64 noundef %43, i64 noundef %44, ptr noundef @.str.30)
  br label %46

46:                                               ; preds = %42
  store i8 1, ptr %19, align 1
  %47 = load i8, ptr %19, align 1
  %48 = trunc i8 %47 to i1
  %49 = zext i1 %48 to i8
  store i8 %49, ptr %19, align 1
  br label %50

50:                                               ; preds = %46
  br label %51

51:                                               ; preds = %50
  store i32 -1, ptr %18, align 4
  br label %61

52:                                               ; No predecessors!
  br label %53

53:                                               ; preds = %52
  br label %54

54:                                               ; preds = %53, %26
  %55 = load ptr, ptr %12, align 8
  %56 = icmp ne ptr %55, null
  br i1 %56, label %57, label %60

57:                                               ; preds = %54
  %58 = load i64, ptr %16, align 8
  %59 = load ptr, ptr %12, align 8
  store i64 %58, ptr %59, align 8
  br label %60

60:                                               ; preds = %57, %54
  br label %61

61:                                               ; preds = %60, %51
  %62 = load i32, ptr %18, align 4
  ret i32 %62
}