; Function Attrs: nounwind uwtable
define range(i32 -1, -2147483648) i32 @H5L_iterate(ptr noundef %0, ptr noundef %1, i32 noundef %2, i32 noundef %3, ptr noundef %4, ptr noundef %5, ptr noundef %6) local_unnamed_addr #0 {
  %8 = alloca %struct.H5G_link_iterate_t, align 8
  %9 = alloca i64, align 8
  %10 = icmp eq ptr %4, null
  br i1 %10, label %13, label %11

11:                                               ; preds = %7
  %12 = load i64, ptr %4, align 8
  br label %13

13:                                               ; preds = %7, %11
  %14 = phi i64 [ %12, %11 ], [ 0, %7 ]
  store i64 0, ptr %9, align 8
  store i32 1, ptr %8, align 8
  %15 = getelementptr inbounds i8, ptr %8, i64 8
  store ptr %5, ptr %15, align 8
  %16 = call i32 @H5G_iterate(ptr noundef %0, ptr noundef %1, i32 noundef %2, i32 noundef %3, i64 noundef %14, ptr noundef nonnull %9, ptr noundef nonnull %8, ptr noundef %6) #10
  %17 = icmp slt i32 %16, 0
  br i1 %17, label %18, label %22

18:                                               ; preds = %13
  %19 = load i64, ptr @H5E_LINK_g, align 8
  %20 = load i64, ptr @H5E_BADITER_g, align 8
  %21 = call i32 (ptr, ptr, i32, i64, i64, ptr, ...) @H5E_printf_stack(ptr noundef nonnull @.str, ptr noundef nonnull @__func__.H5L_iterate, i32 noundef 2149, i64 noundef %19, i64 noundef %20, ptr noundef nonnull @.str.30) #10
  br label %25

22:                                               ; preds = %13
  br i1 %10, label %25, label %23

23:                                               ; preds = %22
  %24 = load i64, ptr %9, align 8
  store i64 %24, ptr %4, align 8
  br label %25

25:                                               ; preds = %22, %23, %18
  %.0 = phi i32 [ -1, %18 ], [ %16, %23 ], [ %16, %22 ]
  ret i32 %.0
}